target datalayout = "e-m:e-p270:32:32-p271:32:32-p272:64:64-i64:64-i128:128-f80:128-n8:16:32:64-S128"
target triple = "x86_64-pc-linux-gnu"

%struct.Dar_Lib_t_ = type { ptr, i32, i32, [222 x i32], [222 x ptr], ptr, i32, ptr, [222 x ptr], ptr, [222 x ptr], ptr, [222 x ptr], [222 x i32], [222 x ptr], ptr, i32, i32, i32, [222 x i32], [222 x ptr], ptr, i32, [222 x i32], [222 x ptr], ptr, i32, ptr, i32, ptr, ptr, ptr, ptr, ptr }

@s_DarLib = internal global ptr null, align 8

; Function Attrs: nounwind uwtable
define void @Dar_LibIncrementScore(i32 noundef %0, i32 noundef %1, i32 noundef %2) #0 {
  %4 = alloca i32, align 4
  %5 = alloca i32, align 4
  %6 = alloca i32, align 4
  %7 = alloca ptr, align 8
  %8 = alloca ptr, align 8
  %9 = alloca ptr, align 8
  %10 = alloca i32, align 4
  store i32 %0, ptr %4, align 4
  store i32 %1, ptr %5, align 4
  store i32 %2, ptr %6, align 4
  %11 = load ptr, ptr @s_DarLib, align 8
  %12 = getelementptr inbounds %struct.Dar_Lib_t_, ptr %11, i32 0, i32 8
  %13 = load i32, ptr %4, align 4
  %14 = sext i32 %13 to i64
  %15 = getelementptr inbounds [222 x ptr], ptr %12, i64 0, i64 %14
  %16 = load ptr, ptr %15, align 8
  store ptr %16, ptr %7, align 8
  %17 = load ptr, ptr @s_DarLib, align 8
  %18 = getelementptr inbounds %struct.Dar_Lib_t_, ptr %17, i32 0, i32 10
  %19 = load i32, ptr %4, align 4
  %20 = sext i32 %19 to i64
  %21 = getelementptr inbounds [222 x ptr], ptr %18, i64 0, i64 %20
  %22 = load ptr, ptr %21, align 8
  store ptr %22, ptr %8, align 8
  %23 = load ptr, ptr @s_DarLib, align 8
  %24 = getelementptr inbounds %struct.Dar_Lib_t_, ptr %23, i32 0, i32 12
  %25 = load i32, ptr %4, align 4
  %26 = sext i32 %25 to i64
  %27 = getelementptr inbounds [222 x ptr], ptr %24, i64 0, i64 %26
  %28 = load ptr, ptr %27, align 8
  store ptr %28, ptr %9, align 8
  %29 = load i32, ptr %6, align 4
  %30 = load ptr, ptr %9, align 8
  %31 = load i32, ptr %5, align 4
  %32 = sext i32 %31 to i64
  %33 = getelementptr inbounds i32, ptr %30, i64 %32
  %34 = load i32, ptr %33, align 4
  %35 = add nsw i32 %34, %29
  store i32 %35, ptr %33, align 4
  br label %36

36:                                               ; preds = %66, %3
  %37 = load ptr, ptr %8, align 8
  %38 = load i32, ptr %5, align 4
  %39 = sext i32 %38 to i64
  %40 = getelementptr inbounds i32, ptr %37, i64 %39
  %41 = load i32, ptr %40, align 4
  %42 = icmp sgt i32 %41, 0
  br i1 %42, label %43, label %64

43:                                               ; preds = %36
  %44 = load ptr, ptr %9, align 8
  %45 = load i32, ptr %5, align 4
  %46 = sext i32 %45 to i64
  %47 = getelementptr inbounds i32, ptr %44, i64 %46
  %48 = load i32, ptr %47, align 4
  %49 = load ptr, ptr %9, align 8
  %50 = load ptr, ptr %7, align 8
  %51 = load ptr, ptr %8, align 8
  %52 = load i32, ptr %5, align 4
  %53 = sext i32 %52 to i64
  %54 = getelementptr inbounds i32, ptr %51, i64 %53
  %55 = load i32, ptr %54, align 4
  %56 = sub nsw i32 %55, 1
  %57 = sext i32 %56 to i64
  %58 = getelementptr inbounds i32, ptr %50, i64 %57
  %59 = load i32, ptr %58, align 4
  %60 = sext i32 %59 to i64
  %61 = getelementptr inbounds i32, ptr %49, i64 %60
  %62 = load i32, ptr %61, align 4
  %63 = icmp sgt i32 %48, %62
  br label %64

64:                                               ; preds = %43, %36
  %65 = phi i1 [ false, %36 ], [ %63, %43 ]
  br i1 %65, label %66, label %107

66:                                               ; preds = %64
  %67 = load ptr, ptr %7, align 8
  %68 = load ptr, ptr %8, align 8
  %69 = load i32, ptr %5, align 4
  %70 = sext i32 %69 to i64
  %71 = getelementptr inbounds i32, ptr %68, i64 %70
  %72 = load i32, ptr %71, align 4
  %73 = sub nsw i32 %72, 1
  %74 = sext i32 %73 to i64
  %75 = getelementptr inbounds i32, ptr %67, i64 %74
  %76 = load i32, ptr %75, align 4
  store i32 %76, ptr %10, align 4
  %77 = load ptr, ptr %8, align 8
  %78 = load i32, ptr %5, align 4
  %79 = sext i32 %78 to i64
  %80 = getelementptr inbounds i32, ptr %77, i64 %79
  %81 = load i32, ptr %80, align 4
  %82 = add nsw i32 %81, -1
  store i32 %82, ptr %80, align 4
  %83 = load ptr, ptr %8, align 8
  %84 = load i32, ptr %10, align 4
  %85 = sext i32 %84 to i64
  %86 = getelementptr inbounds i32, ptr %83, i64 %85
  %87 = load i32, ptr %86, align 4
  %88 = add nsw i32 %87, 1
  store i32 %88, ptr %86, align 4
  %89 = load i32, ptr %5, align 4
  %90 = load ptr, ptr %7, align 8
  %91 = load ptr, ptr %8, align 8
  %92 = load i32, ptr %5, align 4
  %93 = sext i32 %92 to i64
  %94 = getelementptr inbounds i32, ptr %91, i64 %93
  %95 = load i32, ptr %94, align 4
  %96 = sext i32 %95 to i64
  %97 = getelementptr inbounds i32, ptr %90, i64 %96
  store i32 %89, ptr %97, align 4
  %98 = load i32, ptr %10, align 4
  %99 = load ptr, ptr %7, align 8
  %100 = load ptr, ptr %8, align 8
  %101 = load i32, ptr %10, align 4
  %102 = sext i32 %101 to i64
  %103 = getelementptr inbounds i32, ptr %100, i64 %102
  %104 = load i32, ptr %103, align 4
  %105 = sext i32 %104 to i64
  %106 = getelementptr inbounds i32, ptr %99, i64 %105
  store i32 %98, ptr %106, align 4
  br label %36, !llvm.loop !40

107:                                              ; preds = %64
  ret void
}