; Function Attrs: nofree norecurse nosync nounwind memory(readwrite, inaccessiblemem: none) uwtable
define void @Dar_LibIncrementScore(i32 noundef %0, i32 noundef %1, i32 noundef %2) local_unnamed_addr #11 {
  %4 = load ptr, ptr @s_DarLib, align 8
  %5 = getelementptr inbounds nuw i8, ptr %4, i64 2704
  %6 = sext i32 %0 to i64
  %7 = getelementptr inbounds [222 x ptr], ptr %5, i64 0, i64 %6
  %8 = load ptr, ptr %7, align 8
  %9 = getelementptr inbounds nuw i8, ptr %4, i64 4488
  %10 = getelementptr inbounds [222 x ptr], ptr %9, i64 0, i64 %6
  %11 = load ptr, ptr %10, align 8
  %12 = getelementptr inbounds nuw i8, ptr %4, i64 6272
  %13 = getelementptr inbounds [222 x ptr], ptr %12, i64 0, i64 %6
  %14 = load ptr, ptr %13, align 8
  %15 = sext i32 %1 to i64
  %16 = getelementptr inbounds i32, ptr %14, i64 %15
  %17 = load i32, ptr %16, align 4
  %18 = add nsw i32 %17, %2
  store i32 %18, ptr %16, align 4
  %19 = getelementptr inbounds i32, ptr %11, i64 %15
  %invariant.gep = getelementptr i8, ptr %8, i64 -4
  %20 = load i32, ptr %19, align 4
  %21 = icmp sgt i32 %20, 0
  br i1 %21, label %.lr.ph, label %.critedge

.lr.ph:                                           ; preds = %3, %30
  %22 = phi i32 [ %41, %30 ], [ %20, %3 ]
  %23 = load i32, ptr %16, align 4
  %24 = zext nneg i32 %22 to i64
  %gep = getelementptr i32, ptr %invariant.gep, i64 %24
  %25 = load i32, ptr %gep, align 4
  %26 = sext i32 %25 to i64
  %27 = getelementptr inbounds i32, ptr %14, i64 %26
  %28 = load i32, ptr %27, align 4
  %29 = icmp sgt i32 %23, %28
  br i1 %29, label %30, label %.critedge

30:                                               ; preds = %.lr.ph
  %31 = add nsw i32 %22, -1
  store i32 %31, ptr %19, align 4
  %32 = getelementptr inbounds i32, ptr %11, i64 %26
  %33 = load i32, ptr %32, align 4
  %34 = add nsw i32 %33, 1
  store i32 %34, ptr %32, align 4
  %35 = load i32, ptr %19, align 4
  %36 = sext i32 %35 to i64
  %37 = getelementptr inbounds i32, ptr %8, i64 %36
  store i32 %1, ptr %37, align 4
  %38 = load i32, ptr %32, align 4
  %39 = sext i32 %38 to i64
  %40 = getelementptr inbounds i32, ptr %8, i64 %39
  store i32 %25, ptr %40, align 4
  %41 = load i32, ptr %19, align 4
  %42 = icmp sgt i32 %41, 0
  br i1 %42, label %.lr.ph, label %.critedge, !llvm.loop !32

.critedge:                                        ; preds = %.lr.ph, %30, %3
  ret void
}